; ModuleID = '7/1012.c'
source_filename = "7/1012.c"
target datalayout = "e-m:e-p270:32:32-p271:32:32-p272:64:64-i64:64-f80:128-n8:16:32:64-S128"
target triple = "x86_64-pc-linux-gnu"

@.str = private unnamed_addr constant [3 x i8] c"%s\00", align 1

; Function Attrs: noinline nounwind uwtable
define dso_local i32 @main() #0 {
  %1 = alloca i32, align 4
  %2 = alloca [256 x i8], align 16
  %3 = alloca [256 x i8], align 16
  %4 = alloca [256 x i8], align 16
  %5 = alloca i32, align 4
  %6 = alloca i32, align 4
  %7 = alloca i32, align 4
  %8 = alloca i32, align 4
  %9 = alloca i32, align 4
  %10 = alloca i32, align 4
  %11 = alloca i32, align 4
  %12 = alloca i32, align 4
  store i32 0, i32* %1, align 4
  store i32 0, i32* %7, align 4
  br label %13

13:                                               ; preds = %26, %0
  %14 = load i32, i32* %7, align 4
  %15 = icmp slt i32 %14, 256
  br i1 %15, label %16, label %29

16:                                               ; preds = %13
  %17 = load i32, i32* %7, align 4
  %18 = sext i32 %17 to i64
  %19 = getelementptr inbounds [256 x i8], [256 x i8]* %2, i64 0, i64 %18
  store i8 0, i8* %19, align 1
  %20 = load i32, i32* %7, align 4
  %21 = sext i32 %20 to i64
  %22 = getelementptr inbounds [256 x i8], [256 x i8]* %3, i64 0, i64 %21
  store i8 0, i8* %22, align 1
  %23 = load i32, i32* %7, align 4
  %24 = sext i32 %23 to i64
  %25 = getelementptr inbounds [256 x i8], [256 x i8]* %4, i64 0, i64 %24
  store i8 0, i8* %25, align 1
  br label %26

26:                                               ; preds = %16
  %27 = load i32, i32* %7, align 4
  %28 = add nsw i32 %27, 1
  store i32 %28, i32* %7, align 4
  br label %13

29:                                               ; preds = %13
  %30 = getelementptr inbounds [256 x i8], [256 x i8]* %2, i64 0, i64 0
  %31 = call i32 (i8*, ...) @__isoc99_scanf(i8* getelementptr inbounds ([3 x i8], [3 x i8]* @.str, i64 0, i64 0), i8* %30)
  %32 = getelementptr inbounds [256 x i8], [256 x i8]* %3, i64 0, i64 0
  %33 = call i32 (i8*, ...) @__isoc99_scanf(i8* getelementptr inbounds ([3 x i8], [3 x i8]* @.str, i64 0, i64 0), i8* %32)
  %34 = getelementptr inbounds [256 x i8], [256 x i8]* %4, i64 0, i64 0
  %35 = call i32 (i8*, ...) @__isoc99_scanf(i8* getelementptr inbounds ([3 x i8], [3 x i8]* @.str, i64 0, i64 0), i8* %34)
  store i32 0, i32* %6, align 4
  store i32 0, i32* %5, align 4
  store i32 0, i32* %10, align 4
  store i32 0, i32* %7, align 4
  br label %36

36:                                               ; preds = %46, %29
  %37 = load i32, i32* %7, align 4
  %38 = sext i32 %37 to i64
  %39 = getelementptr inbounds [256 x i8], [256 x i8]* %2, i64 0, i64 %38
  %40 = load i8, i8* %39, align 1
  %41 = sext i8 %40 to i32
  %42 = icmp ne i32 %41, 0
  br i1 %42, label %43, label %49

43:                                               ; preds = %36
  %44 = load i32, i32* %6, align 4
  %45 = add nsw i32 %44, 1
  store i32 %45, i32* %6, align 4
  br label %46

46:                                               ; preds = %43
  %47 = load i32, i32* %7, align 4
  %48 = add nsw i32 %47, 1
  store i32 %48, i32* %7, align 4
  br label %36

49:                                               ; preds = %36
  store i32 0, i32* %7, align 4
  br label %50

50:                                               ; preds = %60, %49
  %51 = load i32, i32* %7, align 4
  %52 = sext i32 %51 to i64
  %53 = getelementptr inbounds [256 x i8], [256 x i8]* %3, i64 0, i64 %52
  %54 = load i8, i8* %53, align 1
  %55 = sext i8 %54 to i32
  %56 = icmp ne i32 %55, 0
  br i1 %56, label %57, label %63

57:                                               ; preds = %50
  %58 = load i32, i32* %5, align 4
  %59 = add nsw i32 %58, 1
  store i32 %59, i32* %5, align 4
  br label %60

60:                                               ; preds = %57
  %61 = load i32, i32* %7, align 4
  %62 = add nsw i32 %61, 1
  store i32 %62, i32* %7, align 4
  br label %50

63:                                               ; preds = %50
  store i32 0, i32* %7, align 4
  br label %64

64:                                               ; preds = %74, %63
  %65 = load i32, i32* %7, align 4
  %66 = sext i32 %65 to i64
  %67 = getelementptr inbounds [256 x i8], [256 x i8]* %4, i64 0, i64 %66
  %68 = load i8, i8* %67, align 1
  %69 = sext i8 %68 to i32
  %70 = icmp ne i32 %69, 0
  br i1 %70, label %71, label %77

71:                                               ; preds = %64
  %72 = load i32, i32* %10, align 4
  %73 = add nsw i32 %72, 1
  store i32 %73, i32* %10, align 4
  br label %74

74:                                               ; preds = %71
  %75 = load i32, i32* %7, align 4
  %76 = add nsw i32 %75, 1
  store i32 %76, i32* %7, align 4
  br label %64

77:                                               ; preds = %64
  store i32 0, i32* %11, align 4
  store i32 0, i32* %7, align 4
  br label %78

78:                                               ; preds = %152, %77
  %79 = load i32, i32* %7, align 4
  %80 = sext i32 %79 to i64
  %81 = getelementptr inbounds [256 x i8], [256 x i8]* %2, i64 0, i64 %80
  %82 = load i8, i8* %81, align 1
  %83 = sext i8 %82 to i32
  %84 = icmp ne i32 %83, 0
  br i1 %84, label %85, label %153

85:                                               ; preds = %78
  %86 = load i32, i32* %7, align 4
  %87 = sext i32 %86 to i64
  %88 = getelementptr inbounds [256 x i8], [256 x i8]* %2, i64 0, i64 %87
  %89 = load i8, i8* %88, align 1
  %90 = sext i8 %89 to i32
  %91 = getelementptr inbounds [256 x i8], [256 x i8]* %3, i64 0, i64 0
  %92 = load i8, i8* %91, align 16
  %93 = sext i8 %92 to i32
  %94 = icmp eq i32 %90, %93
  br i1 %94, label %95, label %149

95:                                               ; preds = %85
  store i32 0, i32* %8, align 4
  %96 = load i32, i32* %7, align 4
  store i32 %96, i32* %11, align 4
  store i32 0, i32* %9, align 4
  br label %97

97:                                               ; preds = %118, %95
  %98 = load i32, i32* %7, align 4
  %99 = sext i32 %98 to i64
  %100 = getelementptr inbounds [256 x i8], [256 x i8]* %2, i64 0, i64 %99
  %101 = load i8, i8* %100, align 1
  %102 = sext i8 %101 to i32
  %103 = load i32, i32* %8, align 4
  %104 = sext i32 %103 to i64
  %105 = getelementptr inbounds [256 x i8], [256 x i8]* %3, i64 0, i64 %104
  %106 = load i8, i8* %105, align 1
  %107 = sext i8 %106 to i32
  %108 = icmp eq i32 %102, %107
  br i1 %108, label %109, label %116

109:                                              ; preds = %97
  %110 = load i32, i32* %7, align 4
  %111 = sext i32 %110 to i64
  %112 = getelementptr inbounds [256 x i8], [256 x i8]* %2, i64 0, i64 %111
  %113 = load i8, i8* %112, align 1
  %114 = sext i8 %113 to i32
  %115 = icmp ne i32 %114, 0
  br label %116

116:                                              ; preds = %109, %97
  %117 = phi i1 [ false, %97 ], [ %115, %109 ]
  br i1 %117, label %118, label %125

118:                                              ; preds = %116
  %119 = load i32, i32* %9, align 4
  %120 = add nsw i32 %119, 1
  store i32 %120, i32* %9, align 4
  %121 = load i32, i32* %7, align 4
  %122 = add nsw i32 %121, 1
  store i32 %122, i32* %7, align 4
  %123 = load i32, i32* %8, align 4
  %124 = add nsw i32 %123, 1
  store i32 %124, i32* %8, align 4
  br label %97

125:                                              ; preds = %116
  %126 = load i32, i32* %9, align 4
  %127 = load i32, i32* %5, align 4
  %128 = icmp eq i32 %126, %127
  br i1 %128, label %129, label %148

129:                                              ; preds = %125
  store i32 0, i32* %12, align 4
  store i32 0, i32* %12, align 4
  br label %130

130:                                              ; preds = %144, %129
  %131 = load i32, i32* %12, align 4
  %132 = load i32, i32* %10, align 4
  %133 = icmp slt i32 %131, %132
  br i1 %133, label %134, label %147

134:                                              ; preds = %130
  %135 = load i32, i32* %12, align 4
  %136 = sext i32 %135 to i64
  %137 = getelementptr inbounds [256 x i8], [256 x i8]* %4, i64 0, i64 %136
  %138 = load i8, i8* %137, align 1
  %139 = load i32, i32* %11, align 4
  %140 = load i32, i32* %12, align 4
  %141 = add nsw i32 %139, %140
  %142 = sext i32 %141 to i64
  %143 = getelementptr inbounds [256 x i8], [256 x i8]* %2, i64 0, i64 %142
  store i8 %138, i8* %143, align 1
  br label %144

144:                                              ; preds = %134
  %145 = load i32, i32* %12, align 4
  %146 = add nsw i32 %145, 1
  store i32 %146, i32* %12, align 4
  br label %130

147:                                              ; preds = %130
  br label %153

148:                                              ; preds = %125
  br label %152

149:                                              ; preds = %85
  %150 = load i32, i32* %7, align 4
  %151 = add nsw i32 %150, 1
  store i32 %151, i32* %7, align 4
  br label %152

152:                                              ; preds = %149, %148
  br label %78

153:                                              ; preds = %147, %78
  %154 = getelementptr inbounds [256 x i8], [256 x i8]* %2, i64 0, i64 0
  %155 = call i32 (i8*, ...) @printf(i8* getelementptr inbounds ([3 x i8], [3 x i8]* @.str, i64 0, i64 0), i8* %154)
  %156 = load i32, i32* %1, align 4
  ret i32 %156
}

declare dso_local i32 @__isoc99_scanf(i8*, ...) #1

declare dso_local i32 @printf(i8*, ...) #1


!llvm.module.flags = !{!0}
!llvm.ident = !{!1}

!0 = !{i32 1, !"wchar_size", i32 4}
!1 = !{!"clang version 10.0.0-4ubuntu1 "}
